target datalayout = "e-m:e-p270:32:32-p271:32:32-p272:64:64-i64:64-i128:128-f80:128-n8:16:32:64-S128"
target triple = "x86_64-pc-linux-gnu"

%struct.Param = type { %struct.Expr, i32, i32, i32, i32, i32, i32 }
%struct.Expr = type { i32 }
%struct.Var = type { %struct.Expr, i32, i16, i32, i32, i32, ptr, i32, i32, i32, i16, i32 }
%struct.ForEachState = type { ptr, i32 }
%struct.PlannerInfo = type { i32, ptr, ptr, i32, ptr, ptr, ptr, ptr, i32, ptr, ptr, ptr, ptr, ptr, ptr, ptr, ptr, i32, ptr, ptr, ptr, ptr, ptr, i8, ptr, ptr, ptr, ptr, ptr, i32, ptr, ptr, ptr, ptr, ptr, ptr, ptr, i32, ptr, ptr, ptr, i32, ptr, ptr, ptr, ptr, ptr, ptr, [8 x ptr], [8 x ptr], ptr, ptr, ptr, ptr, ptr, ptr, ptr, double, double, double, i32, i8, i8, i8, i8, i8, i8, i8, i32, ptr, ptr, i32, i8, i8, i32, ptr, ptr, ptr, ptr, ptr, ptr, i8, ptr }
%struct.List = type { i32, i32, i32, ptr, [0 x %union.ListCell] }
%union.ListCell = type { ptr }
%struct.Node = type { i32 }
%struct.PlannerGlobal = type { i32, ptr, ptr, ptr, ptr, ptr, ptr, ptr, ptr, ptr, ptr, ptr, ptr, ptr, ptr, ptr, ptr, i32, i32, i32, i8, i8, i8, i8, i8, ptr }
%struct.NestLoopParam = type { i32, i32, ptr }

; Function Attrs: inlinehint nounwind uwtable
define internal i32 @list_length(ptr noundef %0) #2 {
  %2 = alloca ptr, align 8
  store ptr %0, ptr %2, align 8
  %3 = load ptr, ptr %2, align 8
  %4 = icmp ne ptr %3, null
  br i1 %4, label %5, label %9

5:                                                ; preds = %1
  %6 = load ptr, ptr %2, align 8
  %7 = getelementptr inbounds nuw %struct.List, ptr %6, i32 0, i32 1
  %8 = load i32, ptr %7, align 4
  br label %10

9:                                                ; preds = %1
  br label %10

10:                                               ; preds = %9, %5
  %11 = phi i32 [ %8, %5 ], [ 0, %9 ]
  ret i32 %11
}

; Function Attrs: nounwind uwtable
define dso_local ptr @generate_new_exec_param(ptr noundef %0, i32 noundef %1, i32 noundef %2, i32 noundef %3) #0 {
  %5 = alloca ptr, align 8
  %6 = alloca i32, align 4
  %7 = alloca i32, align 4
  %8 = alloca i32, align 4
  %9 = alloca ptr, align 8
  store ptr %0, ptr %5, align 8
  store i32 %1, ptr %6, align 4
  store i32 %2, ptr %7, align 4
  store i32 %3, ptr %8, align 4
  call void @llvm.lifetime.start.p0(i64 8, ptr %9) #6
  %10 = call ptr @newNode(i64 noundef 28, i32 noundef 8)
  store ptr %10, ptr %9, align 8
  %11 = load ptr, ptr %9, align 8
  %12 = getelementptr inbounds nuw %struct.Param, ptr %11, i32 0, i32 1
  store i32 1, ptr %12, align 4
  %13 = load ptr, ptr %5, align 8
  %14 = getelementptr inbounds nuw %struct.PlannerInfo, ptr %13, i32 0, i32 2
  %15 = load ptr, ptr %14, align 8
  %16 = getelementptr inbounds nuw %struct.PlannerGlobal, ptr %15, i32 0, i32 16
  %17 = load ptr, ptr %16, align 8
  %18 = call i32 @list_length(ptr noundef %17)
  %19 = load ptr, ptr %9, align 8
  %20 = getelementptr inbounds nuw %struct.Param, ptr %19, i32 0, i32 2
  store i32 %18, ptr %20, align 4
  %21 = load ptr, ptr %5, align 8
  %22 = getelementptr inbounds nuw %struct.PlannerInfo, ptr %21, i32 0, i32 2
  %23 = load ptr, ptr %22, align 8
  %24 = getelementptr inbounds nuw %struct.PlannerGlobal, ptr %23, i32 0, i32 16
  %25 = load ptr, ptr %24, align 8
  %26 = load i32, ptr %6, align 4
  %27 = call ptr @lappend_oid(ptr noundef %25, i32 noundef %26)
  %28 = load ptr, ptr %5, align 8
  %29 = getelementptr inbounds nuw %struct.PlannerInfo, ptr %28, i32 0, i32 2
  %30 = load ptr, ptr %29, align 8
  %31 = getelementptr inbounds nuw %struct.PlannerGlobal, ptr %30, i32 0, i32 16
  store ptr %27, ptr %31, align 8
  %32 = load i32, ptr %6, align 4
  %33 = load ptr, ptr %9, align 8
  %34 = getelementptr inbounds nuw %struct.Param, ptr %33, i32 0, i32 3
  store i32 %32, ptr %34, align 4
  %35 = load i32, ptr %7, align 4
  %36 = load ptr, ptr %9, align 8
  %37 = getelementptr inbounds nuw %struct.Param, ptr %36, i32 0, i32 4
  store i32 %35, ptr %37, align 4
  %38 = load i32, ptr %8, align 4
  %39 = load ptr, ptr %9, align 8
  %40 = getelementptr inbounds nuw %struct.Param, ptr %39, i32 0, i32 5
  store i32 %38, ptr %40, align 4
  %41 = load ptr, ptr %9, align 8
  %42 = getelementptr inbounds nuw %struct.Param, ptr %41, i32 0, i32 6
  store i32 -1, ptr %42, align 4
  %43 = load ptr, ptr %9, align 8
  call void @llvm.lifetime.end.p0(i64 8, ptr %9) #6
  ret ptr %43
}

; Function Attrs: inlinehint nounwind uwtable
define internal ptr @newNode(i64 noundef %0, i32 noundef %1) #2 {
  %3 = alloca i64, align 8
  %4 = alloca i32, align 4
  %5 = alloca ptr, align 8
  store i64 %0, ptr %3, align 8
  store i32 %1, ptr %4, align 4
  call void @llvm.lifetime.start.p0(i64 8, ptr %5) #6
  %6 = load i64, ptr %3, align 8
  %7 = call ptr @palloc0(i64 noundef %6)
  store ptr %7, ptr %5, align 8
  %8 = load i32, ptr %4, align 4
  %9 = load ptr, ptr %5, align 8
  %10 = getelementptr inbounds nuw %struct.Node, ptr %9, i32 0, i32 0
  store i32 %8, ptr %10, align 4
  %11 = load ptr, ptr %5, align 8
  call void @llvm.lifetime.end.p0(i64 8, ptr %5) #6
  ret ptr %11
}

; Function Attrs: nounwind uwtable
define dso_local ptr @replace_nestloop_param_var(ptr noundef %0, ptr noundef %1) #0 {
  %3 = alloca ptr, align 8
  %4 = alloca ptr, align 8
  %5 = alloca ptr, align 8
  %6 = alloca ptr, align 8
  %7 = alloca ptr, align 8
  %8 = alloca ptr, align 8
  %9 = alloca %struct.ForEachState, align 8
  %10 = alloca i32, align 4
  store ptr %0, ptr %4, align 8
  store ptr %1, ptr %5, align 8
  call void @llvm.lifetime.start.p0(i64 8, ptr %6) #6
  call void @llvm.lifetime.start.p0(i64 8, ptr %7) #6
  call void @llvm.lifetime.start.p0(i64 8, ptr %8) #6
  call void @llvm.lifetime.start.p0(i64 16, ptr %9) #6
  %11 = getelementptr inbounds nuw %struct.ForEachState, ptr %9, i32 0, i32 0
  %12 = load ptr, ptr %4, align 8
  %13 = getelementptr inbounds nuw %struct.PlannerInfo, ptr %12, i32 0, i32 77
  %14 = load ptr, ptr %13, align 8
  store ptr %14, ptr %11, align 8
  %15 = getelementptr inbounds nuw %struct.ForEachState, ptr %9, i32 0, i32 1
  store i32 0, ptr %15, align 8
  %16 = getelementptr i8, ptr %9, i64 12
  call void @llvm.memset.p0.i64(ptr align 4 %16, i8 0, i64 4, i1 false)
  br label %17

17:                                               ; preds = %82, %2
  %18 = getelementptr inbounds nuw %struct.ForEachState, ptr %9, i32 0, i32 0
  %19 = load ptr, ptr %18, align 8
  %20 = icmp ne ptr %19, null
  br i1 %20, label %21, label %38

21:                                               ; preds = %17
  %22 = getelementptr inbounds nuw %struct.ForEachState, ptr %9, i32 0, i32 1
  %23 = load i32, ptr %22, align 8
  %24 = getelementptr inbounds nuw %struct.ForEachState, ptr %9, i32 0, i32 0
  %25 = load ptr, ptr %24, align 8
  %26 = getelementptr inbounds nuw %struct.List, ptr %25, i32 0, i32 1
  %27 = load i32, ptr %26, align 4
  %28 = icmp slt i32 %23, %27
  br i1 %28, label %29, label %38

29:                                               ; preds = %21
  %30 = getelementptr inbounds nuw %struct.ForEachState, ptr %9, i32 0, i32 0
  %31 = load ptr, ptr %30, align 8
  %32 = getelementptr inbounds nuw %struct.List, ptr %31, i32 0, i32 3
  %33 = load ptr, ptr %32, align 8
  %34 = getelementptr inbounds nuw %struct.ForEachState, ptr %9, i32 0, i32 1
  %35 = load i32, ptr %34, align 8
  %36 = sext i32 %35 to i64
  %37 = getelementptr inbounds %union.ListCell, ptr %33, i64 %36
  store ptr %37, ptr %8, align 8
  br label %39

38:                                               ; preds = %21, %17
  store ptr null, ptr %8, align 8
  br label %39

39:                                               ; preds = %38, %29
  %40 = phi i32 [ 1, %29 ], [ 0, %38 ]
  %41 = icmp ne i32 %40, 0
  br i1 %41, label %43, label %42

42:                                               ; preds = %39
  store i32 2, ptr %10, align 4
  br label %86

43:                                               ; preds = %39
  %44 = load ptr, ptr %8, align 8
  %45 = load ptr, ptr %44, align 8
  store ptr %45, ptr %7, align 8
  %46 = load ptr, ptr %5, align 8
  %47 = load ptr, ptr %7, align 8
  %48 = getelementptr inbounds nuw %struct.NestLoopParam, ptr %47, i32 0, i32 2
  %49 = load ptr, ptr %48, align 8
  %50 = call zeroext i1 @equal(ptr noundef %46, ptr noundef %49)
  br i1 %50, label %51, label %81

51:                                               ; preds = %43
  %52 = call ptr @newNode(i64 noundef 28, i32 noundef 8)
  store ptr %52, ptr %6, align 8
  %53 = load ptr, ptr %6, align 8
  %54 = getelementptr inbounds nuw %struct.Param, ptr %53, i32 0, i32 1
  store i32 1, ptr %54, align 4
  %55 = load ptr, ptr %7, align 8
  %56 = getelementptr inbounds nuw %struct.NestLoopParam, ptr %55, i32 0, i32 1
  %57 = load i32, ptr %56, align 4
  %58 = load ptr, ptr %6, align 8
  %59 = getelementptr inbounds nuw %struct.Param, ptr %58, i32 0, i32 2
  store i32 %57, ptr %59, align 4
  %60 = load ptr, ptr %5, align 8
  %61 = getelementptr inbounds nuw %struct.Var, ptr %60, i32 0, i32 3
  %62 = load i32, ptr %61, align 4
  %63 = load ptr, ptr %6, align 8
  %64 = getelementptr inbounds nuw %struct.Param, ptr %63, i32 0, i32 3
  store i32 %62, ptr %64, align 4
  %65 = load ptr, ptr %5, align 8
  %66 = getelementptr inbounds nuw %struct.Var, ptr %65, i32 0, i32 4
  %67 = load i32, ptr %66, align 8
  %68 = load ptr, ptr %6, align 8
  %69 = getelementptr inbounds nuw %struct.Param, ptr %68, i32 0, i32 4
  store i32 %67, ptr %69, align 4
  %70 = load ptr, ptr %5, align 8
  %71 = getelementptr inbounds nuw %struct.Var, ptr %70, i32 0, i32 5
  %72 = load i32, ptr %71, align 4
  %73 = load ptr, ptr %6, align 8
  %74 = getelementptr inbounds nuw %struct.Param, ptr %73, i32 0, i32 5
  store i32 %72, ptr %74, align 4
  %75 = load ptr, ptr %5, align 8
  %76 = getelementptr inbounds nuw %struct.Var, ptr %75, i32 0, i32 11
  %77 = load i32, ptr %76, align 8
  %78 = load ptr, ptr %6, align 8
  %79 = getelementptr inbounds nuw %struct.Param, ptr %78, i32 0, i32 6
  store i32 %77, ptr %79, align 4
  %80 = load ptr, ptr %6, align 8
  store ptr %80, ptr %3, align 8
  store i32 1, ptr %10, align 4
  br label %86

81:                                               ; preds = %43
  br label %82

82:                                               ; preds = %81
  %83 = getelementptr inbounds nuw %struct.ForEachState, ptr %9, i32 0, i32 1
  %84 = load i32, ptr %83, align 8
  %85 = add i32 %84, 1
  store i32 %85, ptr %83, align 8
  br label %17, !llvm.loop !13

86:                                               ; preds = %51, %42
  call void @llvm.lifetime.end.p0(i64 16, ptr %9) #6
  %87 = load i32, ptr %10, align 4
  switch i32 %87, label %123 [
    i32 2, label %88
  ]

88:                                               ; preds = %86
  %89 = load ptr, ptr %4, align 8
  %90 = load ptr, ptr %5, align 8
  %91 = getelementptr inbounds nuw %struct.Var, ptr %90, i32 0, i32 3
  %92 = load i32, ptr %91, align 4
  %93 = load ptr, ptr %5, align 8
  %94 = getelementptr inbounds nuw %struct.Var, ptr %93, i32 0, i32 4
  %95 = load i32, ptr %94, align 8
  %96 = load ptr, ptr %5, align 8
  %97 = getelementptr inbounds nuw %struct.Var, ptr %96, i32 0, i32 5
  %98 = load i32, ptr %97, align 4
  %99 = call ptr @generate_new_exec_param(ptr noundef %89, i32 noundef %92, i32 noundef %95, i32 noundef %98)
  store ptr %99, ptr %6, align 8
  %100 = load ptr, ptr %5, align 8
  %101 = getelementptr inbounds nuw %struct.Var, ptr %100, i32 0, i32 11
  %102 = load i32, ptr %101, align 8
  %103 = load ptr, ptr %6, align 8
  %104 = getelementptr inbounds nuw %struct.Param, ptr %103, i32 0, i32 6
  store i32 %102, ptr %104, align 4
  %105 = call ptr @newNode(i64 noundef 16, i32 noundef 356)
  store ptr %105, ptr %7, align 8
  %106 = load ptr, ptr %6, align 8
  %107 = getelementptr inbounds nuw %struct.Param, ptr %106, i32 0, i32 2
  %108 = load i32, ptr %107, align 4
  %109 = load ptr, ptr %7, align 8
  %110 = getelementptr inbounds nuw %struct.NestLoopParam, ptr %109, i32 0, i32 1
  store i32 %108, ptr %110, align 4
  %111 = load ptr, ptr %5, align 8
  %112 = call ptr @copyObjectImpl(ptr noundef %111)
  %113 = load ptr, ptr %7, align 8
  %114 = getelementptr inbounds nuw %struct.NestLoopParam, ptr %113, i32 0, i32 2
  store ptr %112, ptr %114, align 8
  %115 = load ptr, ptr %4, align 8
  %116 = getelementptr inbounds nuw %struct.PlannerInfo, ptr %115, i32 0, i32 77
  %117 = load ptr, ptr %116, align 8
  %118 = load ptr, ptr %7, align 8
  %119 = call ptr @lappend(ptr noundef %117, ptr noundef %118)
  %120 = load ptr, ptr %4, align 8
  %121 = getelementptr inbounds nuw %struct.PlannerInfo, ptr %120, i32 0, i32 77
  store ptr %119, ptr %121, align 8
  %122 = load ptr, ptr %6, align 8
  store ptr %122, ptr %3, align 8
  store i32 1, ptr %10, align 4
  br label %123

123:                                              ; preds = %88, %86
  call void @llvm.lifetime.end.p0(i64 8, ptr %8) #6
  call void @llvm.lifetime.end.p0(i64 8, ptr %7) #6
  call void @llvm.lifetime.end.p0(i64 8, ptr %6) #6
  %124 = load ptr, ptr %3, align 8
  ret ptr %124
}