; Function Attrs: nounwind uwtable
define dso_local noundef ptr @replace_nestloop_param_var(ptr noundef captures(none) %0, ptr noundef %1) local_unnamed_addr #0 {
  %3 = getelementptr inbounds nuw i8, ptr %0, i64 656
  %4 = load ptr, ptr %3, align 8
  %.not = icmp eq ptr %4, null
  br i1 %.not, label %._crit_edge, label %.lr.ph

.lr.ph:                                           ; preds = %2
  %5 = getelementptr inbounds nuw i8, ptr %4, i64 4
  %6 = getelementptr inbounds nuw i8, ptr %4, i64 16
  %7 = load i32, ptr %5, align 4
  %8 = icmp sgt i32 %7, 0
  br i1 %8, label %.lr.ph48, label %._crit_edge

9:                                                ; preds = %.lr.ph48
  %indvars.iv.next = add nuw nsw i64 %indvars.iv, 1
  %10 = load i32, ptr %5, align 4
  %11 = sext i32 %10 to i64
  %12 = icmp slt i64 %indvars.iv.next, %11
  br i1 %12, label %.lr.ph48, label %._crit_edge

.lr.ph48:                                         ; preds = %.lr.ph, %9
  %indvars.iv = phi i64 [ %indvars.iv.next, %9 ], [ 0, %.lr.ph ]
  %13 = load ptr, ptr %6, align 8
  %14 = getelementptr inbounds nuw %union.ListCell, ptr %13, i64 %indvars.iv
  %15 = load ptr, ptr %14, align 8
  %16 = getelementptr inbounds nuw i8, ptr %15, i64 8
  %17 = load ptr, ptr %16, align 8
  %18 = tail call zeroext i1 @equal(ptr noundef %1, ptr noundef %17) #4
  br i1 %18, label %.split, label %9

.split:                                           ; preds = %.lr.ph48
  %19 = tail call noundef ptr @palloc0(i64 noundef 28) #4
  store i32 8, ptr %19, align 4
  %20 = getelementptr inbounds nuw i8, ptr %19, i64 4
  store i32 1, ptr %20, align 4
  %21 = getelementptr inbounds nuw i8, ptr %15, i64 4
  %22 = load i32, ptr %21, align 4
  %23 = getelementptr inbounds nuw i8, ptr %19, i64 8
  store i32 %22, ptr %23, align 4
  %24 = getelementptr inbounds nuw i8, ptr %1, i64 12
  %25 = load i32, ptr %24, align 4
  %26 = getelementptr inbounds nuw i8, ptr %19, i64 12
  store i32 %25, ptr %26, align 4
  %27 = getelementptr inbounds nuw i8, ptr %1, i64 16
  %28 = load i32, ptr %27, align 8
  %29 = getelementptr inbounds nuw i8, ptr %19, i64 16
  store i32 %28, ptr %29, align 4
  %30 = getelementptr inbounds nuw i8, ptr %1, i64 20
  %31 = load i32, ptr %30, align 4
  %32 = getelementptr inbounds nuw i8, ptr %19, i64 20
  store i32 %31, ptr %32, align 4
  %33 = getelementptr inbounds nuw i8, ptr %1, i64 48
  %34 = load i32, ptr %33, align 8
  %35 = getelementptr inbounds nuw i8, ptr %19, i64 24
  store i32 %34, ptr %35, align 4
  br label %72

._crit_edge:                                      ; preds = %9, %.lr.ph, %2
  %36 = getelementptr inbounds nuw i8, ptr %1, i64 12
  %37 = load i32, ptr %36, align 4
  %38 = getelementptr inbounds nuw i8, ptr %1, i64 16
  %39 = load i32, ptr %38, align 8
  %40 = getelementptr inbounds nuw i8, ptr %1, i64 20
  %41 = load i32, ptr %40, align 4
  %42 = tail call noundef ptr @palloc0(i64 noundef 28) #4
  store i32 8, ptr %42, align 4
  %43 = getelementptr inbounds nuw i8, ptr %42, i64 4
  store i32 1, ptr %43, align 4
  %44 = getelementptr inbounds nuw i8, ptr %0, i64 16
  %45 = load ptr, ptr %44, align 8
  %46 = getelementptr inbounds nuw i8, ptr %45, i64 128
  %47 = load ptr, ptr %46, align 8
  %.not.i.i = icmp eq ptr %47, null
  br i1 %.not.i.i, label %generate_new_exec_param.exit, label %48

48:                                               ; preds = %._crit_edge
  %49 = getelementptr inbounds nuw i8, ptr %47, i64 4
  %50 = load i32, ptr %49, align 4
  br label %generate_new_exec_param.exit

generate_new_exec_param.exit:                     ; preds = %._crit_edge, %48
  %51 = phi i32 [ %50, %48 ], [ 0, %._crit_edge ]
  %52 = getelementptr inbounds nuw i8, ptr %42, i64 8
  store i32 %51, ptr %52, align 4
  %53 = load ptr, ptr %44, align 8
  %54 = getelementptr inbounds nuw i8, ptr %53, i64 128
  %55 = load ptr, ptr %54, align 8
  %56 = tail call ptr @lappend_oid(ptr noundef %55, i32 noundef %37) #4
  %57 = load ptr, ptr %44, align 8
  %58 = getelementptr inbounds nuw i8, ptr %57, i64 128
  store ptr %56, ptr %58, align 8
  %59 = getelementptr inbounds nuw i8, ptr %42, i64 12
  store i32 %37, ptr %59, align 4
  %60 = getelementptr inbounds nuw i8, ptr %42, i64 16
  store i32 %39, ptr %60, align 4
  %61 = getelementptr inbounds nuw i8, ptr %42, i64 20
  store i32 %41, ptr %61, align 4
  %62 = getelementptr inbounds nuw i8, ptr %42, i64 24
  store i32 -1, ptr %62, align 4
  %63 = getelementptr inbounds nuw i8, ptr %1, i64 48
  %64 = load i32, ptr %63, align 8
  store i32 %64, ptr %62, align 4
  %65 = tail call noundef ptr @palloc0(i64 noundef 16) #4
  store i32 356, ptr %65, align 4
  %66 = load i32, ptr %52, align 4
  %67 = getelementptr inbounds nuw i8, ptr %65, i64 4
  store i32 %66, ptr %67, align 4
  %68 = tail call ptr @copyObjectImpl(ptr noundef nonnull %1) #4
  %69 = getelementptr inbounds nuw i8, ptr %65, i64 8
  store ptr %68, ptr %69, align 8
  %70 = load ptr, ptr %3, align 8
  %71 = tail call ptr @lappend(ptr noundef %70, ptr noundef nonnull %65) #4
  store ptr %71, ptr %3, align 8
  br label %72

72:                                               ; preds = %.split, %generate_new_exec_param.exit
  %.1 = phi ptr [ %42, %generate_new_exec_param.exit ], [ %19, %.split ]
  ret ptr %.1
}